; Function Attrs: nounwind uwtable
define hidden zeroext i1 @SDL_FillSurfaceRects_REAL(ptr noundef %0, ptr noundef %1, i32 noundef %2, i32 noundef %3) local_unnamed_addr #0 {
  %5 = alloca %struct.SDL_Rect, align 4
  call void @llvm.lifetime.start.p0(i64 16, ptr nonnull %5) #5
  %6 = tail call zeroext i1 @SDL_SurfaceValid(ptr noundef %0) #5
  br i1 %6, label %9, label %7

7:                                                ; preds = %4
  %8 = tail call zeroext i1 (ptr, ...) @SDL_SetError_REAL(ptr noundef nonnull @.str, ptr noundef nonnull @.str.2) #5
  br label %.loopexit

9:                                                ; preds = %4
  %10 = getelementptr inbounds nuw i8, ptr %0, i64 8
  %11 = load i32, ptr %10, align 8
  %12 = icmp eq i32 %11, 0
  br i1 %12, label %.loopexit, label %13

13:                                               ; preds = %9
  %14 = getelementptr inbounds nuw i8, ptr %0, i64 12
  %15 = load i32, ptr %14, align 4
  %16 = icmp eq i32 %15, 0
  br i1 %16, label %.loopexit, label %17

17:                                               ; preds = %13
  %18 = getelementptr inbounds nuw i8, ptr %0, i64 24
  %19 = load ptr, ptr %18, align 8
  %.not = icmp eq ptr %19, null
  br i1 %.not, label %20, label %22

20:                                               ; preds = %17
  %21 = tail call zeroext i1 (ptr, ...) @SDL_SetError_REAL(ptr noundef nonnull @.str.3) #5
  br label %.loopexit

22:                                               ; preds = %17
  %.not73 = icmp eq ptr %1, null
  br i1 %.not73, label %23, label %25

23:                                               ; preds = %22
  %24 = tail call zeroext i1 (ptr, ...) @SDL_SetError_REAL(ptr noundef nonnull @.str, ptr noundef nonnull @.str.4) #5
  br label %.loopexit

25:                                               ; preds = %22
  %26 = getelementptr inbounds nuw i8, ptr %0, i64 4
  %27 = load i32, ptr %26, align 4
  %.not74 = icmp ne i32 %27, 0
  %.mask = and i32 %27, -268435456
  %.not75 = icmp ne i32 %.mask, 268435456
  %or.cond.not97 = and i1 %.not74, %.not75
  %28 = and i32 %27, 63488
  %29 = icmp eq i32 %28, 0
  %or.cond92 = or i1 %.not75, %29
  br i1 %or.cond92, label %.critedge, label %57

.critedge:                                        ; preds = %25
  %30 = icmp eq i32 %2, 1
  br i1 %30, label %31, label %.critedge87

31:                                               ; preds = %.critedge
  %32 = load i32, ptr %1, align 4
  %33 = icmp eq i32 %32, 0
  br i1 %33, label %34, label %.critedge87

34:                                               ; preds = %31
  %35 = getelementptr inbounds nuw i8, ptr %1, i64 4
  %36 = load i32, ptr %35, align 4
  %37 = icmp eq i32 %36, 0
  br i1 %37, label %38, label %.critedge87

38:                                               ; preds = %34
  %39 = getelementptr inbounds nuw i8, ptr %1, i64 8
  %40 = load i32, ptr %39, align 4
  %41 = icmp eq i32 %40, %11
  br i1 %41, label %42, label %.critedge87

42:                                               ; preds = %38
  %43 = getelementptr inbounds nuw i8, ptr %1, i64 12
  %44 = load i32, ptr %43, align 4
  %45 = icmp ne i32 %44, %15
  %brmerge = or i1 %or.cond.not97, %45
  %46 = and i32 %27, 65280
  %47 = icmp ne i32 %46, 1024
  %or.cond96.not = or i1 %47, %brmerge
  br i1 %or.cond96.not, label %.critedge87, label %.critedge88

.critedge88:                                      ; preds = %42
  %48 = shl i32 %3, 4
  %49 = or i32 %48, %3
  %50 = trunc i32 %49 to i8
  %51 = sext i32 %15 to i64
  %52 = getelementptr inbounds nuw i8, ptr %0, i64 16
  %53 = load i32, ptr %52, align 8
  %54 = sext i32 %53 to i64
  %55 = mul nsw i64 %54, %51
  tail call void @llvm.memset.p0.i64(ptr nonnull align 1 %19, i8 %50, i64 %55, i1 false)
  br label %.loopexit

.critedge87:                                      ; preds = %42, %38, %34, %31, %.critedge
  %56 = tail call zeroext i1 (ptr, ...) @SDL_SetError_REAL(ptr noundef nonnull @.str.5) #5
  br label %.loopexit

57:                                               ; preds = %25
  %trunc = trunc i32 %27 to i8
  switch i8 %trunc, label %67 [
    i8 1, label %58
    i8 2, label %63
    i8 3, label %69
    i8 4, label %66
  ]

58:                                               ; preds = %57
  %59 = shl i32 %3, 8
  %60 = or i32 %59, %3
  %61 = shl i32 %60, 16
  %62 = or i32 %61, %60
  br label %69

63:                                               ; preds = %57
  %64 = shl i32 %3, 16
  %65 = or i32 %64, %3
  br label %69

66:                                               ; preds = %57
  br label %69

67:                                               ; preds = %57
  %68 = tail call zeroext i1 (ptr, ...) @SDL_SetError_REAL(ptr noundef nonnull @.str.6) #5
  br label %.loopexit

69:                                               ; preds = %57, %58, %63, %66
  %.067 = phi ptr [ @SDL_FillSurfaceRect4, %66 ], [ @SDL_FillSurfaceRect2, %63 ], [ @SDL_FillSurfaceRect1, %58 ], [ @SDL_FillSurfaceRect3, %57 ]
  %.064 = phi i32 [ %3, %66 ], [ %65, %63 ], [ %62, %58 ], [ %3, %57 ]
  %70 = icmp sgt i32 %2, 0
  br i1 %70, label %.lr.ph, label %.loopexit

.lr.ph:                                           ; preds = %69
  %71 = getelementptr inbounds nuw i8, ptr %0, i64 100
  %72 = getelementptr inbounds nuw i8, ptr %5, i64 4
  %73 = getelementptr inbounds nuw i8, ptr %0, i64 16
  %74 = getelementptr inbounds nuw i8, ptr %5, i64 8
  %75 = getelementptr inbounds nuw i8, ptr %5, i64 12
  %wide.trip.count = zext nneg i32 %2 to i64
  br label %76

76:                                               ; preds = %.lr.ph, %101
  %indvars.iv = phi i64 [ 0, %.lr.ph ], [ %indvars.iv.next, %101 ]
  %77 = getelementptr inbounds nuw %struct.SDL_Rect, ptr %1, i64 %indvars.iv
  %78 = call zeroext i1 @SDL_GetRectIntersection_REAL(ptr noundef nonnull %77, ptr noundef nonnull %71, ptr noundef nonnull %5) #5
  br i1 %78, label %79, label %101

79:                                               ; preds = %76
  %80 = load ptr, ptr %18, align 8
  %81 = load i32, ptr %72, align 4
  %82 = load i32, ptr %73, align 8
  %83 = mul nsw i32 %82, %81
  %84 = sext i32 %83 to i64
  %85 = getelementptr inbounds i8, ptr %80, i64 %84
  %86 = load i32, ptr %5, align 4
  %87 = load i32, ptr %26, align 4
  %.not79 = icmp eq i32 %87, 0
  %.mask81 = and i32 %87, -268435456
  %.not80 = icmp eq i32 %.mask81, 268435456
  %or.cond90 = or i1 %.not79, %.not80
  br i1 %or.cond90, label %92, label %88

88:                                               ; preds = %79
  switch i32 %87, label %89 [
    i32 844715353, label %94
    i32 1498831189, label %94
    i32 1431918169, label %94
  ]

89:                                               ; preds = %88
  %90 = icmp eq i32 %87, 808530000
  %91 = select i1 %90, i32 2, i32 1
  br label %94

92:                                               ; preds = %79
  %93 = and i32 %87, 255
  br label %94

94:                                               ; preds = %89, %88, %88, %88, %92
  %95 = phi i32 [ %93, %92 ], [ 2, %88 ], [ %91, %89 ], [ 2, %88 ], [ 2, %88 ]
  %96 = mul i32 %95, %86
  %97 = zext i32 %96 to i64
  %98 = getelementptr inbounds nuw i8, ptr %85, i64 %97
  %99 = load i32, ptr %74, align 4
  %100 = load i32, ptr %75, align 4
  call void %.067(ptr noundef %98, i32 noundef %82, i32 noundef %.064, i32 noundef %99, i32 noundef %100) #5, !callees !3
  br label %101

101:                                              ; preds = %76, %94
  %indvars.iv.next = add nuw nsw i64 %indvars.iv, 1
  %exitcond.not = icmp eq i64 %indvars.iv.next, %wide.trip.count
  br i1 %exitcond.not, label %.loopexit, label %76, !llvm.loop !4

.loopexit:                                        ; preds = %101, %69, %.critedge88, %9, %13, %67, %.critedge87, %23, %20, %7
  %.0 = phi i1 [ %56, %.critedge87 ], [ %68, %67 ], [ %24, %23 ], [ %21, %20 ], [ %8, %7 ], [ true, %13 ], [ true, %9 ], [ true, %.critedge88 ], [ true, %69 ], [ true, %101 ]
  call void @llvm.lifetime.end.p0(i64 16, ptr nonnull %5) #5
  ret i1 %.0
}